; Function Attrs: mustprogress uwtable
define hidden void @_ZN10pull_quant5resetEv(ptr noundef nonnull readonly align 8 captures(none) dereferenceable(8) %0) local_unnamed_addr #3 align 2 {
  %2 = load ptr, ptr %0, align 8, !tbaa !110
  tail call void @_ZN13rewriter_core5resetEv(ptr noundef nonnull align 8 dereferenceable(536) %2)
  %3 = getelementptr inbounds nuw i8, ptr %2, i64 160
  %4 = load ptr, ptr %3, align 8, !tbaa !113
  %.not.i.i = icmp eq ptr %4, null
  br i1 %.not.i.i, label %_ZN6vectorIP4exprLb0EjE5resetEv.exit.i, label %5

5:                                                ; preds = %1
  %6 = getelementptr inbounds i8, ptr %4, i64 -4
  store i32 0, ptr %6, align 4, !tbaa !114
  br label %_ZN6vectorIP4exprLb0EjE5resetEv.exit.i

_ZN6vectorIP4exprLb0EjE5resetEv.exit.i:           ; preds = %5, %1
  %7 = getelementptr inbounds nuw i8, ptr %2, i64 528
  %8 = load ptr, ptr %7, align 8, !tbaa !115
  %.not.i1.i = icmp eq ptr %8, null
  br i1 %.not.i1.i, label %_ZN12rewriter_tplIN10pull_quant3imp6rw_cfgEE5resetEv.exit, label %9

9:                                                ; preds = %_ZN6vectorIP4exprLb0EjE5resetEv.exit.i
  %10 = getelementptr inbounds i8, ptr %8, i64 -4
  store i32 0, ptr %10, align 4, !tbaa !114
  br label %_ZN12rewriter_tplIN10pull_quant3imp6rw_cfgEE5resetEv.exit

_ZN12rewriter_tplIN10pull_quant3imp6rw_cfgEE5resetEv.exit: ; preds = %_ZN6vectorIP4exprLb0EjE5resetEv.exit.i, %9
  %11 = getelementptr inbounds nuw i8, ptr %2, i64 168
  tail call void @_ZN13rewriter_core5resetEv(ptr noundef nonnull align 8 dereferenceable(144) %11)
  %12 = getelementptr inbounds nuw i8, ptr %2, i64 328
  tail call void @_ZN13rewriter_core5resetEv(ptr noundef nonnull align 8 dereferenceable(144) %12)
  ret void
}